; Function Attrs: mustprogress uwtable
define ptr @cvscript_command_names() local_unnamed_addr #1 {
  %1 = tail call noundef ptr @_ZN12colvarmodule4mainEv()
  %2 = load ptr, ptr @_ZN12colvarmodule5proxyE, align 8, !tbaa !4
  %3 = getelementptr inbounds nuw i8, ptr %2, i64 824
  %4 = load ptr, ptr %3, align 8, !tbaa !9
  %5 = getelementptr inbounds nuw i8, ptr %4, i64 128
  %6 = load ptr, ptr %5, align 8, !tbaa !13
  ret ptr %6
}